target datalayout = "e-m:e-p270:32:32-p271:32:32-p272:64:64-i64:64-i128:128-f80:128-n8:16:32:64-S128"
target triple = "x86_64-pc-linux-gnu"

@H5L_table_g = internal global ptr null, align 8
@H5L_table_alloc_g = internal global i64 0, align 8
@H5L_table_used_g = internal global i64 0, align 8

; Function Attrs: nounwind uwtable
define i32 @H5L_term_package() #0 {
  %1 = alloca i32, align 4
  store i32 0, ptr %1, align 4
  %2 = load ptr, ptr @H5L_table_g, align 8
  %3 = icmp ne ptr %2, null
  br i1 %3, label %4, label %9

4:                                                ; preds = %0
  %5 = load ptr, ptr @H5L_table_g, align 8
  %6 = call ptr @H5MM_xfree(ptr noundef %5)
  store ptr %6, ptr @H5L_table_g, align 8
  store i64 0, ptr @H5L_table_alloc_g, align 8
  store i64 0, ptr @H5L_table_used_g, align 8
  %7 = load i32, ptr %1, align 4
  %8 = add nsw i32 %7, 1
  store i32 %8, ptr %1, align 4
  br label %9

9:                                                ; preds = %4, %0
  %10 = load i32, ptr %1, align 4
  ret i32 %10
}